#include <math.h>
#include <stdio.h>
#include <stdlib.h>
#include <string.h>

int main()
{
	int m,i,n,j,a,b,t;
	scanf("%d",&m);
    for(i=0;i<m;i++){
		float sum=0;
	    scanf("%d",&n);
		int a1=1,a2=1,b1=0,	b2=1;
		for(j=0;j<n;j++){
			a=a1+a2;
			b=b1+b2;
			sum=sum+1.0*a/b;
			t=a;
			a1=a2;
            a2=t;
            t=b;
			b1=b2;
            b2=t;
		}
		printf("%.3f\n",sum);
	}
    return 0;
}
