; ModuleID = '29/229.c'
source_filename = "29/229.c"
target datalayout = "e-m:e-p270:32:32-p271:32:32-p272:64:64-i64:64-f80:128-n8:16:32:64-S128"
target triple = "x86_64-pc-linux-gnu"

@.str = private unnamed_addr constant [3 x i8] c"%d\00", align 1
@.str.1 = private unnamed_addr constant [6 x i8] c"%.3f\0A\00", align 1

; Function Attrs: noinline nounwind uwtable
define dso_local i32 @main() #0 {
  %1 = alloca i32, align 4
  %2 = alloca i32, align 4
  %3 = alloca i32, align 4
  %4 = alloca i32, align 4
  %5 = alloca i32, align 4
  %6 = alloca i32, align 4
  %7 = alloca i32, align 4
  %8 = alloca i32, align 4
  %9 = alloca float, align 4
  %10 = alloca i32, align 4
  %11 = alloca i32, align 4
  %12 = alloca i32, align 4
  %13 = alloca i32, align 4
  store i32 0, i32* %1, align 4
  %14 = call i32 (i8*, ...) @__isoc99_scanf(i8* getelementptr inbounds ([3 x i8], [3 x i8]* @.str, i64 0, i64 0), i32* %2)
  store i32 0, i32* %3, align 4
  br label %15

15:                                               ; preds = %55, %0
  %16 = load i32, i32* %3, align 4
  %17 = load i32, i32* %2, align 4
  %18 = icmp slt i32 %16, %17
  br i1 %18, label %19, label %58

19:                                               ; preds = %15
  store float 0.000000e+00, float* %9, align 4
  %20 = call i32 (i8*, ...) @__isoc99_scanf(i8* getelementptr inbounds ([3 x i8], [3 x i8]* @.str, i64 0, i64 0), i32* %4)
  store i32 1, i32* %10, align 4
  store i32 1, i32* %11, align 4
  store i32 0, i32* %12, align 4
  store i32 1, i32* %13, align 4
  store i32 0, i32* %5, align 4
  br label %21

21:                                               ; preds = %48, %19
  %22 = load i32, i32* %5, align 4
  %23 = load i32, i32* %4, align 4
  %24 = icmp slt i32 %22, %23
  br i1 %24, label %25, label %51

25:                                               ; preds = %21
  %26 = load i32, i32* %10, align 4
  %27 = load i32, i32* %11, align 4
  %28 = add nsw i32 %26, %27
  store i32 %28, i32* %6, align 4
  %29 = load i32, i32* %12, align 4
  %30 = load i32, i32* %13, align 4
  %31 = add nsw i32 %29, %30
  store i32 %31, i32* %7, align 4
  %32 = load float, float* %9, align 4
  %33 = fpext float %32 to double
  %34 = load i32, i32* %6, align 4
  %35 = sitofp i32 %34 to double
  %36 = fmul double 1.000000e+00, %35
  %37 = load i32, i32* %7, align 4
  %38 = sitofp i32 %37 to double
  %39 = fdiv double %36, %38
  %40 = fadd double %33, %39
  %41 = fptrunc double %40 to float
  store float %41, float* %9, align 4
  %42 = load i32, i32* %6, align 4
  store i32 %42, i32* %8, align 4
  %43 = load i32, i32* %11, align 4
  store i32 %43, i32* %10, align 4
  %44 = load i32, i32* %8, align 4
  store i32 %44, i32* %11, align 4
  %45 = load i32, i32* %7, align 4
  store i32 %45, i32* %8, align 4
  %46 = load i32, i32* %13, align 4
  store i32 %46, i32* %12, align 4
  %47 = load i32, i32* %8, align 4
  store i32 %47, i32* %13, align 4
  br label %48

48:                                               ; preds = %25
  %49 = load i32, i32* %5, align 4
  %50 = add nsw i32 %49, 1
  store i32 %50, i32* %5, align 4
  br label %21

51:                                               ; preds = %21
  %52 = load float, float* %9, align 4
  %53 = fpext float %52 to double
  %54 = call i32 (i8*, ...) @printf(i8* getelementptr inbounds ([6 x i8], [6 x i8]* @.str.1, i64 0, i64 0), double %53)
  br label %55

55:                                               ; preds = %51
  %56 = load i32, i32* %3, align 4
  %57 = add nsw i32 %56, 1
  store i32 %57, i32* %3, align 4
  br label %15

58:                                               ; preds = %15
  ret i32 0
}

declare dso_local i32 @__isoc99_scanf(i8*, ...) #1

declare dso_local i32 @printf(i8*, ...) #1


!llvm.module.flags = !{!0}
!llvm.ident = !{!1}

!0 = !{i32 1, !"wchar_size", i32 4}
!1 = !{!"clang version 10.0.0-4ubuntu1 "}
